target datalayout = "e-m:e-p270:32:32-p271:32:32-p272:64:64-i64:64-i128:128-f80:128-n8:16:32:64-S128"
target triple = "x86_64-pc-linux-gnu"

%struct.Node = type { i32 }
%struct.GrantStmt = type { i32, i8, i32, i32, ptr, ptr, ptr, i8, ptr, i32 }

; Function Attrs: inlinehint nounwind willreturn memory(read) uwtable
define available_externally i32 @atoi(ptr noundef nonnull %0) #6 {
  %2 = alloca ptr, align 8
  store ptr %0, ptr %2, align 8
  %3 = load ptr, ptr %2, align 8
  %4 = call i64 @strtol(ptr noundef %3, ptr noundef null, i32 noundef 10) #9
  %5 = trunc i64 %4 to i32
  ret i32 %5
}

; Function Attrs: inlinehint nounwind uwtable
define internal ptr @newNode(i64 noundef %0, i32 noundef %1) #7 {
  %3 = alloca i64, align 8
  %4 = alloca i32, align 4
  %5 = alloca ptr, align 8
  store i64 %0, ptr %3, align 8
  store i32 %1, ptr %4, align 4
  call void @llvm.lifetime.start.p0(i64 8, ptr %5) #9
  %6 = load i64, ptr %3, align 8
  %7 = call ptr @palloc0(i64 noundef %6)
  store ptr %7, ptr %5, align 8
  %8 = load i32, ptr %4, align 4
  %9 = load ptr, ptr %5, align 8
  %10 = getelementptr inbounds nuw %struct.Node, ptr %9, i32 0, i32 0
  store i32 %8, ptr %10, align 4
  %11 = load ptr, ptr %5, align 8
  call void @llvm.lifetime.end.p0(i64 8, ptr %5) #9
  ret ptr %11
}

; Function Attrs: nounwind uwtable
define internal ptr @_readGrantStmt() #0 {
  %1 = alloca ptr, align 8
  %2 = alloca ptr, align 8
  %3 = alloca i32, align 4
  call void @llvm.lifetime.start.p0(i64 8, ptr %1) #9
  %4 = call ptr @newNode(i64 noundef 64, i32 noundef 151)
  store ptr %4, ptr %1, align 8
  call void @llvm.lifetime.start.p0(i64 8, ptr %2) #9
  call void @llvm.lifetime.start.p0(i64 4, ptr %3) #9
  %5 = call ptr @pg_strtok(ptr noundef %3)
  store ptr %5, ptr %2, align 8
  %6 = call ptr @pg_strtok(ptr noundef %3)
  store ptr %6, ptr %2, align 8
  %7 = load ptr, ptr %2, align 8
  %8 = load i8, ptr %7, align 1
  %9 = sext i8 %8 to i32
  %10 = icmp eq i32 %9, 116
  %11 = select i1 %10, i32 1, i32 0
  %12 = icmp ne i32 %11, 0
  %13 = load ptr, ptr %1, align 8
  %14 = getelementptr inbounds nuw %struct.GrantStmt, ptr %13, i32 0, i32 1
  %15 = zext i1 %12 to i8
  store i8 %15, ptr %14, align 4
  %16 = call ptr @pg_strtok(ptr noundef %3)
  store ptr %16, ptr %2, align 8
  %17 = call ptr @pg_strtok(ptr noundef %3)
  store ptr %17, ptr %2, align 8
  %18 = load ptr, ptr %2, align 8
  %19 = call i32 @atoi(ptr noundef %18) #11
  %20 = load ptr, ptr %1, align 8
  %21 = getelementptr inbounds nuw %struct.GrantStmt, ptr %20, i32 0, i32 2
  store i32 %19, ptr %21, align 8
  %22 = call ptr @pg_strtok(ptr noundef %3)
  store ptr %22, ptr %2, align 8
  %23 = call ptr @pg_strtok(ptr noundef %3)
  store ptr %23, ptr %2, align 8
  %24 = load ptr, ptr %2, align 8
  %25 = call i32 @atoi(ptr noundef %24) #11
  %26 = load ptr, ptr %1, align 8
  %27 = getelementptr inbounds nuw %struct.GrantStmt, ptr %26, i32 0, i32 3
  store i32 %25, ptr %27, align 4
  %28 = call ptr @pg_strtok(ptr noundef %3)
  store ptr %28, ptr %2, align 8
  %29 = call ptr @nodeRead(ptr noundef null, i32 noundef 0)
  %30 = load ptr, ptr %1, align 8
  %31 = getelementptr inbounds nuw %struct.GrantStmt, ptr %30, i32 0, i32 4
  store ptr %29, ptr %31, align 8
  %32 = call ptr @pg_strtok(ptr noundef %3)
  store ptr %32, ptr %2, align 8
  %33 = call ptr @nodeRead(ptr noundef null, i32 noundef 0)
  %34 = load ptr, ptr %1, align 8
  %35 = getelementptr inbounds nuw %struct.GrantStmt, ptr %34, i32 0, i32 5
  store ptr %33, ptr %35, align 8
  %36 = call ptr @pg_strtok(ptr noundef %3)
  store ptr %36, ptr %2, align 8
  %37 = call ptr @nodeRead(ptr noundef null, i32 noundef 0)
  %38 = load ptr, ptr %1, align 8
  %39 = getelementptr inbounds nuw %struct.GrantStmt, ptr %38, i32 0, i32 6
  store ptr %37, ptr %39, align 8
  %40 = call ptr @pg_strtok(ptr noundef %3)
  store ptr %40, ptr %2, align 8
  %41 = call ptr @pg_strtok(ptr noundef %3)
  store ptr %41, ptr %2, align 8
  %42 = load ptr, ptr %2, align 8
  %43 = load i8, ptr %42, align 1
  %44 = sext i8 %43 to i32
  %45 = icmp eq i32 %44, 116
  %46 = select i1 %45, i32 1, i32 0
  %47 = icmp ne i32 %46, 0
  %48 = load ptr, ptr %1, align 8
  %49 = getelementptr inbounds nuw %struct.GrantStmt, ptr %48, i32 0, i32 7
  %50 = zext i1 %47 to i8
  store i8 %50, ptr %49, align 8
  %51 = call ptr @pg_strtok(ptr noundef %3)
  store ptr %51, ptr %2, align 8
  %52 = call ptr @nodeRead(ptr noundef null, i32 noundef 0)
  %53 = load ptr, ptr %1, align 8
  %54 = getelementptr inbounds nuw %struct.GrantStmt, ptr %53, i32 0, i32 8
  store ptr %52, ptr %54, align 8
  %55 = call ptr @pg_strtok(ptr noundef %3)
  store ptr %55, ptr %2, align 8
  %56 = call ptr @pg_strtok(ptr noundef %3)
  store ptr %56, ptr %2, align 8
  %57 = load ptr, ptr %2, align 8
  %58 = call i32 @atoi(ptr noundef %57) #11
  %59 = load ptr, ptr %1, align 8
  %60 = getelementptr inbounds nuw %struct.GrantStmt, ptr %59, i32 0, i32 9
  store i32 %58, ptr %60, align 8
  %61 = load ptr, ptr %1, align 8
  call void @llvm.lifetime.end.p0(i64 4, ptr %3) #9
  call void @llvm.lifetime.end.p0(i64 8, ptr %2) #9
  call void @llvm.lifetime.end.p0(i64 8, ptr %1) #9
  ret ptr %61
}