; Function Attrs: nounwind uwtable
define internal fastcc noundef ptr @_readGrantStmt() unnamed_addr #0 {
  %1 = alloca i32, align 4
  %2 = tail call noundef ptr @palloc0(i64 noundef 64) #10
  store i32 151, ptr %2, align 4
  call void @llvm.lifetime.start.p0(i64 4, ptr nonnull %1) #10
  %3 = call ptr @pg_strtok(ptr noundef nonnull %1) #10
  %4 = call ptr @pg_strtok(ptr noundef nonnull %1) #10
  %5 = load i8, ptr %4, align 1
  %6 = icmp eq i8 %5, 116
  %7 = getelementptr inbounds nuw i8, ptr %2, i64 4
  %8 = zext i1 %6 to i8
  store i8 %8, ptr %7, align 4
  %9 = call ptr @pg_strtok(ptr noundef nonnull %1) #10
  %10 = call ptr @pg_strtok(ptr noundef nonnull %1) #10
  %11 = call i64 @strtol(ptr noundef nonnull captures(none) %10, ptr noundef null, i32 noundef 10) #10
  %12 = trunc i64 %11 to i32
  %13 = getelementptr inbounds nuw i8, ptr %2, i64 8
  store i32 %12, ptr %13, align 8
  %14 = call ptr @pg_strtok(ptr noundef nonnull %1) #10
  %15 = call ptr @pg_strtok(ptr noundef nonnull %1) #10
  %16 = call i64 @strtol(ptr noundef nonnull captures(none) %15, ptr noundef null, i32 noundef 10) #10
  %17 = trunc i64 %16 to i32
  %18 = getelementptr inbounds nuw i8, ptr %2, i64 12
  store i32 %17, ptr %18, align 4
  %19 = call ptr @pg_strtok(ptr noundef nonnull %1) #10
  %20 = call ptr @nodeRead(ptr noundef null, i32 noundef 0) #10
  %21 = getelementptr inbounds nuw i8, ptr %2, i64 16
  store ptr %20, ptr %21, align 8
  %22 = call ptr @pg_strtok(ptr noundef nonnull %1) #10
  %23 = call ptr @nodeRead(ptr noundef null, i32 noundef 0) #10
  %24 = getelementptr inbounds nuw i8, ptr %2, i64 24
  store ptr %23, ptr %24, align 8
  %25 = call ptr @pg_strtok(ptr noundef nonnull %1) #10
  %26 = call ptr @nodeRead(ptr noundef null, i32 noundef 0) #10
  %27 = getelementptr inbounds nuw i8, ptr %2, i64 32
  store ptr %26, ptr %27, align 8
  %28 = call ptr @pg_strtok(ptr noundef nonnull %1) #10
  %29 = call ptr @pg_strtok(ptr noundef nonnull %1) #10
  %30 = load i8, ptr %29, align 1
  %31 = icmp eq i8 %30, 116
  %32 = getelementptr inbounds nuw i8, ptr %2, i64 40
  %33 = zext i1 %31 to i8
  store i8 %33, ptr %32, align 8
  %34 = call ptr @pg_strtok(ptr noundef nonnull %1) #10
  %35 = call ptr @nodeRead(ptr noundef null, i32 noundef 0) #10
  %36 = getelementptr inbounds nuw i8, ptr %2, i64 48
  store ptr %35, ptr %36, align 8
  %37 = call ptr @pg_strtok(ptr noundef nonnull %1) #10
  %38 = call ptr @pg_strtok(ptr noundef nonnull %1) #10
  %39 = call i64 @strtol(ptr noundef nonnull captures(none) %38, ptr noundef null, i32 noundef 10) #10
  %40 = trunc i64 %39 to i32
  %41 = getelementptr inbounds nuw i8, ptr %2, i64 56
  store i32 %40, ptr %41, align 8
  call void @llvm.lifetime.end.p0(i64 4, ptr nonnull %1) #10
  ret ptr %2
}